(lp0
(dp1
S'img_name'
p2
S'004545.jpg'
p3
sS'coors'
p4
(lp5
(lp6
I145
aI200
aI195
aI350
aa(lp7
I0
aI100
aI135
aI200
aasa(dp8
g2
S'000542.jpg'
p9
sg4
(lp10
(lp11
I100
aI66
aI175
aI130
aa(lp12
I300
aI66
aI380
aI130
aasa.